target datalayout = "e-m:e-p270:32:32-p271:32:32-p272:64:64-i64:64-i128:128-f80:128-n8:16:32:64-S128"
target triple = "x86_64-pc-linux-gnu"

%"class.std::__cxx11::basic_string" = type { %"struct.std::__cxx11::basic_string<char>::_Alloc_hider", i64, %union.anon }
%"struct.std::__cxx11::basic_string<char>::_Alloc_hider" = type { ptr }
%union.anon = type { i64, [8 x i8] }
%"class.i18n::phonenumbers::PhoneNumberUtil" = type { %"class.i18n::phonenumbers::Singleton", %"class.boost::scoped_ptr", %"class.boost::scoped_ptr.1", %"class.boost::scoped_ptr.2", %"class.boost::scoped_ptr.3", %"class.boost::scoped_ptr.4", %"class.boost::scoped_ptr.5", %"class.boost::scoped_ptr.6" }
%"class.i18n::phonenumbers::Singleton" = type { ptr }
%"class.boost::scoped_ptr" = type { ptr }
%"class.boost::scoped_ptr.1" = type { ptr }
%"class.boost::scoped_ptr.2" = type { ptr }
%"class.boost::scoped_ptr.3" = type { ptr }
%"class.boost::scoped_ptr.4" = type { ptr }
%"class.boost::scoped_ptr.5" = type { ptr }
%"class.boost::scoped_ptr.6" = type { ptr }
%"struct.std::_Rb_tree_key_compare" = type { %"struct.std::less" }
%"struct.std::less" = type { i8 }
%"struct.std::_Rb_tree_header" = type { %"struct.std::_Rb_tree_node_base", i64 }
%"struct.std::_Rb_tree_node_base" = type { i32, ptr, ptr, ptr }
%"class.i18n::phonenumbers::PhoneNumberRegExpsAndMappings" = type { %"class.std::__cxx11::basic_string", %"class.std::__cxx11::basic_string", %"class.std::__cxx11::basic_string", %"class.std::__cxx11::basic_string", %"class.std::__cxx11::basic_string", %"class.std::__cxx11::basic_string", %"class.boost::scoped_ptr.7", %"class.boost::scoped_ptr.8", %"class.std::map", %"class.std::map", %"class.std::map", %"class.std::map", %"class.std::map", %"class.std::set", %"class.std::set", %"class.boost::scoped_ptr.16", %"class.boost::scoped_ptr.16", %"class.boost::scoped_ptr.16", %"class.boost::scoped_ptr.16", %"class.boost::scoped_ptr.16", %"class.boost::scoped_ptr.16", %"class.boost::scoped_ptr.16", %"class.boost::scoped_ptr.16", %"class.std::__cxx11::basic_string", %"class.boost::scoped_ptr.16", %"class.boost::scoped_ptr.16", %"class.boost::scoped_ptr.16", %"class.boost::scoped_ptr.16", %"class.boost::scoped_ptr.16", %"class.boost::scoped_ptr.16", %"class.std::unique_ptr", %"class.std::unique_ptr" }
%"class.boost::scoped_ptr.7" = type { ptr }
%"class.boost::scoped_ptr.8" = type { ptr }
%"class.std::map" = type { %"class.std::_Rb_tree" }
%"class.std::_Rb_tree" = type { %"struct.std::_Rb_tree<int, std::pair<const int, char>, std::_Select1st<std::pair<const int, char>>, std::less<int>>::_Rb_tree_impl" }
%"struct.std::_Rb_tree<int, std::pair<const int, char>, std::_Select1st<std::pair<const int, char>>, std::less<int>>::_Rb_tree_impl" = type { %"struct.std::_Rb_tree_key_compare", %"struct.std::_Rb_tree_header" }
%"class.std::set" = type { %"class.std::_Rb_tree.12" }
%"class.std::_Rb_tree.12" = type { %"struct.std::_Rb_tree<int, int, std::_Identity<int>, std::less<int>>::_Rb_tree_impl" }
%"struct.std::_Rb_tree<int, int, std::_Identity<int>, std::less<int>>::_Rb_tree_impl" = type { %"struct.std::_Rb_tree_key_compare", %"struct.std::_Rb_tree_header" }
%"class.boost::scoped_ptr.16" = type { ptr }
%"class.std::unique_ptr" = type { %"struct.std::__uniq_ptr_data" }
%"struct.std::__uniq_ptr_data" = type { %"class.std::__uniq_ptr_impl" }
%"class.std::__uniq_ptr_impl" = type { %"class.std::tuple" }
%"class.std::tuple" = type { %"struct.std::_Tuple_impl" }
%"struct.std::_Tuple_impl" = type { %"struct.std::_Head_base.18" }
%"struct.std::_Head_base.18" = type { ptr }
%"class.boost::scoped_ptr.98" = type { ptr }

@.str.56 = private unnamed_addr constant [2 x i8] c"0\00", align 1

; Function Attrs: mustprogress nounwind uwtable
define linkonce_odr dso_local void @_ZN5boost14checked_deleteIN4i18n12phonenumbers11RegExpInputEEEvPT_(ptr noundef %0) #5 comdat {
  %2 = alloca ptr, align 8
  store ptr %0, ptr %2, align 8
  %3 = load ptr, ptr %2, align 8
  %4 = icmp eq ptr %3, null
  br i1 %4, label %9, label %5

5:                                                ; preds = %1
  %6 = load ptr, ptr %3, align 8
  %7 = getelementptr inbounds ptr, ptr %6, i64 1
  %8 = load ptr, ptr %7, align 8
  call void %8(ptr noundef nonnull align 8 dereferenceable(8) %3) #3
  br label %9

9:                                                ; preds = %5, %1
  ret void
}

; Function Attrs: mustprogress nounwind uwtable
define linkonce_odr dso_local void @_ZN5boost10scoped_ptrIN4i18n12phonenumbers11RegExpInputEED2Ev(ptr noundef nonnull align 8 dereferenceable(8) %0) unnamed_addr #5 comdat align 2 {
  %2 = alloca ptr, align 8
  store ptr %0, ptr %2, align 8
  %3 = load ptr, ptr %2, align 8
  %4 = getelementptr inbounds %"class.boost::scoped_ptr.98", ptr %3, i32 0, i32 0
  %5 = load ptr, ptr %4, align 8
  call void @_ZN5boost14checked_deleteIN4i18n12phonenumbers11RegExpInputEEEvPT_(ptr noundef %5) #3
  ret void
}

; Function Attrs: mustprogress nounwind uwtable
define linkonce_odr dso_local noundef zeroext i1 @_ZSteqIcSt11char_traitsIcESaIcEEbRKNSt7__cxx1112basic_stringIT_T0_T1_EEPKS5_(ptr noundef nonnull align 8 dereferenceable(32) %0, ptr noundef %1) #5 comdat {
  %3 = alloca ptr, align 8
  %4 = alloca ptr, align 8
  store ptr %0, ptr %3, align 8
  store ptr %1, ptr %4, align 8
  %5 = load ptr, ptr %3, align 8
  %6 = load ptr, ptr %4, align 8
  %7 = call noundef i32 @_ZNKSt7__cxx1112basic_stringIcSt11char_traitsIcESaIcEE7compareEPKc(ptr noundef nonnull align 8 dereferenceable(32) %5, ptr noundef %6) #3
  %8 = icmp eq i32 %7, 0
  ret i1 %8
}

; Function Attrs: mustprogress uwtable
define linkonce_odr dso_local noundef zeroext i1 @_ZNK4i18n12phonenumbers6RegExp12PartialMatchERKNSt7__cxx1112basic_stringIcSt11char_traitsIcESaIcEEEPS7_(ptr noundef nonnull align 8 dereferenceable(8) %0, ptr noundef nonnull align 8 dereferenceable(32) %1, ptr noundef %2) #4 comdat align 2 {
  %4 = alloca ptr, align 8
  %5 = alloca ptr, align 8
  %6 = alloca ptr, align 8
  store ptr %0, ptr %4, align 8
  store ptr %1, ptr %5, align 8
  store ptr %2, ptr %6, align 8
  %7 = load ptr, ptr %4, align 8
  %8 = load ptr, ptr %5, align 8
  %9 = load ptr, ptr %6, align 8
  %10 = load ptr, ptr %7, align 8
  %11 = getelementptr inbounds ptr, ptr %10, i64 3
  %12 = load ptr, ptr %11, align 8
  %13 = call noundef zeroext i1 %12(ptr noundef nonnull align 8 dereferenceable(8) %7, ptr noundef nonnull align 8 dereferenceable(32) %8, i1 noundef zeroext false, ptr noundef %9)
  ret i1 %13
}

; Function Attrs: mustprogress nounwind uwtable
define linkonce_odr dso_local noundef ptr @_ZNK5boost10scoped_ptrIN4i18n12phonenumbers11RegExpInputEEptEv(ptr noundef nonnull align 8 dereferenceable(8) %0) #5 comdat align 2 {
  %2 = alloca ptr, align 8
  store ptr %0, ptr %2, align 8
  %3 = load ptr, ptr %2, align 8
  %4 = getelementptr inbounds %"class.boost::scoped_ptr.98", ptr %3, i32 0, i32 0
  %5 = load ptr, ptr %4, align 8
  ret ptr %5
}

; Function Attrs: mustprogress nounwind uwtable
define linkonce_odr dso_local noundef ptr @_ZNK5boost10scoped_ptrIKN4i18n12phonenumbers6RegExpEEptEv(ptr noundef nonnull align 8 dereferenceable(8) %0) #5 comdat align 2 {
  %2 = alloca ptr, align 8
  store ptr %0, ptr %2, align 8
  %3 = load ptr, ptr %2, align 8
  %4 = getelementptr inbounds %"class.boost::scoped_ptr.16", ptr %3, i32 0, i32 0
  %5 = load ptr, ptr %4, align 8
  ret ptr %5
}

; Function Attrs: mustprogress uwtable
define linkonce_odr dso_local noundef zeroext i1 @_ZNK4i18n12phonenumbers6RegExp7ConsumeEPNS0_11RegExpInputE(ptr noundef nonnull align 8 dereferenceable(8) %0, ptr noundef %1) #4 comdat align 2 {
  %3 = alloca ptr, align 8
  %4 = alloca ptr, align 8
  store ptr %0, ptr %3, align 8
  store ptr %1, ptr %4, align 8
  %5 = load ptr, ptr %3, align 8
  %6 = load ptr, ptr %4, align 8
  %7 = load ptr, ptr %5, align 8
  %8 = getelementptr inbounds ptr, ptr %7, i64 2
  %9 = load ptr, ptr %8, align 8
  %10 = call noundef zeroext i1 %9(ptr noundef nonnull align 8 dereferenceable(8) %5, ptr noundef %6, i1 noundef zeroext true, ptr noundef null, ptr noundef null, ptr noundef null, ptr noundef null, ptr noundef null, ptr noundef null)
  ret i1 %10
}

; Function Attrs: mustprogress nounwind uwtable
define linkonce_odr dso_local noundef ptr @_ZNK5boost10scoped_ptrIN4i18n12phonenumbers11RegExpInputEE3getEv(ptr noundef nonnull align 8 dereferenceable(8) %0) #5 comdat align 2 {
  %2 = alloca ptr, align 8
  store ptr %0, ptr %2, align 8
  %3 = load ptr, ptr %2, align 8
  %4 = getelementptr inbounds %"class.boost::scoped_ptr.98", ptr %3, i32 0, i32 0
  %5 = load ptr, ptr %4, align 8
  ret ptr %5
}

; Function Attrs: mustprogress nounwind uwtable
define linkonce_odr dso_local void @_ZN5boost10scoped_ptrIN4i18n12phonenumbers11RegExpInputEEC2EPS3_(ptr noundef nonnull align 8 dereferenceable(8) %0, ptr noundef %1) unnamed_addr #5 comdat align 2 {
  %3 = alloca ptr, align 8
  %4 = alloca ptr, align 8
  store ptr %0, ptr %3, align 8
  store ptr %1, ptr %4, align 8
  %5 = load ptr, ptr %3, align 8
  %6 = getelementptr inbounds %"class.boost::scoped_ptr.98", ptr %5, i32 0, i32 0
  %7 = load ptr, ptr %4, align 8
  store ptr %7, ptr %6, align 8
  ret void
}

; Function Attrs: mustprogress nounwind uwtable
define linkonce_odr dso_local noundef ptr @_ZNK5boost10scoped_ptrIKN4i18n12phonenumbers21AbstractRegExpFactoryEEptEv(ptr noundef nonnull align 8 dereferenceable(8) %0) #5 comdat align 2 {
  %2 = alloca ptr, align 8
  store ptr %0, ptr %2, align 8
  %3 = load ptr, ptr %2, align 8
  %4 = getelementptr inbounds %"class.boost::scoped_ptr.7", ptr %3, i32 0, i32 0
  %5 = load ptr, ptr %4, align 8
  ret ptr %5
}

; Function Attrs: mustprogress nounwind uwtable
define linkonce_odr dso_local noundef ptr @_ZNK5boost10scoped_ptrIN4i18n12phonenumbers29PhoneNumberRegExpsAndMappingsEEptEv(ptr noundef nonnull align 8 dereferenceable(8) %0) #5 comdat align 2 {
  %2 = alloca ptr, align 8
  store ptr %0, ptr %2, align 8
  %3 = load ptr, ptr %2, align 8
  %4 = getelementptr inbounds %"class.boost::scoped_ptr.2", ptr %3, i32 0, i32 0
  %5 = load ptr, ptr %4, align 8
  ret ptr %5
}

; Function Attrs: mustprogress uwtable
define dso_local noundef zeroext i1 @_ZNK4i18n12phonenumbers15PhoneNumberUtil16ParsePrefixAsIddERKNS0_6RegExpEPNSt7__cxx1112basic_stringIcSt11char_traitsIcESaIcEEE(ptr noundef nonnull align 8 dereferenceable(64) %0, ptr noundef nonnull align 8 dereferenceable(8) %1, ptr noundef %2) #4 align 2 personality ptr @__gxx_personality_v0 {
  %4 = alloca i1, align 1
  %5 = alloca ptr, align 8
  %6 = alloca ptr, align 8
  %7 = alloca ptr, align 8
  %8 = alloca %"class.boost::scoped_ptr.98", align 8
  %9 = alloca ptr, align 8
  %10 = alloca i32, align 4
  %11 = alloca %"class.std::__cxx11::basic_string", align 8
  %12 = alloca %"class.std::__cxx11::basic_string", align 8
  %13 = alloca i32, align 4
  %14 = alloca %"class.std::__cxx11::basic_string", align 8
  store ptr %0, ptr %5, align 8
  store ptr %1, ptr %6, align 8
  store ptr %2, ptr %7, align 8
  %15 = load ptr, ptr %5, align 8
  %16 = getelementptr inbounds %"class.i18n::phonenumbers::PhoneNumberUtil", ptr %15, i32 0, i32 3
  %17 = call noundef ptr @_ZNK5boost10scoped_ptrIN4i18n12phonenumbers29PhoneNumberRegExpsAndMappingsEEptEv(ptr noundef nonnull align 8 dereferenceable(8) %16) #3
  %18 = getelementptr inbounds %"class.i18n::phonenumbers::PhoneNumberRegExpsAndMappings", ptr %17, i32 0, i32 6
  %19 = call noundef ptr @_ZNK5boost10scoped_ptrIKN4i18n12phonenumbers21AbstractRegExpFactoryEEptEv(ptr noundef nonnull align 8 dereferenceable(8) %18) #3
  %20 = load ptr, ptr %7, align 8
  %21 = load ptr, ptr %19, align 8
  %22 = getelementptr inbounds ptr, ptr %21, i64 2
  %23 = load ptr, ptr %22, align 8
  %24 = call noundef ptr %23(ptr noundef nonnull align 8 dereferenceable(8) %19, ptr noundef nonnull align 8 dereferenceable(32) %20)
  call void @_ZN5boost10scoped_ptrIN4i18n12phonenumbers11RegExpInputEEC2EPS3_(ptr noundef nonnull align 8 dereferenceable(8) %8, ptr noundef %24) #3
  %25 = load ptr, ptr %6, align 8
  %26 = call noundef ptr @_ZNK5boost10scoped_ptrIN4i18n12phonenumbers11RegExpInputEE3getEv(ptr noundef nonnull align 8 dereferenceable(8) %8) #3
  %27 = invoke noundef zeroext i1 @_ZNK4i18n12phonenumbers6RegExp7ConsumeEPNS0_11RegExpInputE(ptr noundef nonnull align 8 dereferenceable(8) %25, ptr noundef %26)
          to label %28 unwind label %46

28:                                               ; preds = %3
  br i1 %27, label %29, label %69

29:                                               ; preds = %28
  call void @_ZNSt7__cxx1112basic_stringIcSt11char_traitsIcESaIcEEC1Ev(ptr noundef nonnull align 8 dereferenceable(32) %11) #3
  %30 = getelementptr inbounds %"class.i18n::phonenumbers::PhoneNumberUtil", ptr %15, i32 0, i32 3
  %31 = call noundef ptr @_ZNK5boost10scoped_ptrIN4i18n12phonenumbers29PhoneNumberRegExpsAndMappingsEEptEv(ptr noundef nonnull align 8 dereferenceable(8) %30) #3
  %32 = getelementptr inbounds %"class.i18n::phonenumbers::PhoneNumberRegExpsAndMappings", ptr %31, i32 0, i32 17
  %33 = call noundef ptr @_ZNK5boost10scoped_ptrIKN4i18n12phonenumbers6RegExpEEptEv(ptr noundef nonnull align 8 dereferenceable(8) %32) #3
  %34 = call noundef ptr @_ZNK5boost10scoped_ptrIN4i18n12phonenumbers11RegExpInputEEptEv(ptr noundef nonnull align 8 dereferenceable(8) %8) #3
  %35 = load ptr, ptr %34, align 8
  %36 = getelementptr inbounds ptr, ptr %35, i64 2
  %37 = load ptr, ptr %36, align 8
  invoke void %37(ptr dead_on_unwind writable sret(%"class.std::__cxx11::basic_string") align 8 %12, ptr noundef nonnull align 8 dereferenceable(8) %34)
          to label %38 unwind label %50

38:                                               ; preds = %29
  %39 = invoke noundef zeroext i1 @_ZNK4i18n12phonenumbers6RegExp12PartialMatchERKNSt7__cxx1112basic_stringIcSt11char_traitsIcESaIcEEEPS7_(ptr noundef nonnull align 8 dereferenceable(8) %33, ptr noundef nonnull align 8 dereferenceable(32) %12, ptr noundef %11)
          to label %40 unwind label %54

40:                                               ; preds = %38
  call void @_ZNSt7__cxx1112basic_stringIcSt11char_traitsIcESaIcEED1Ev(ptr noundef nonnull align 8 dereferenceable(32) %12) #3
  br i1 %39, label %41, label %59

41:                                               ; preds = %40
  invoke void @_ZNK4i18n12phonenumbers15PhoneNumberUtil19NormalizeDigitsOnlyEPNSt7__cxx1112basic_stringIcSt11char_traitsIcESaIcEEE(ptr noundef nonnull align 8 dereferenceable(64) %15, ptr noundef %11)
          to label %42 unwind label %50

42:                                               ; preds = %41
  %43 = invoke noundef zeroext i1 @_ZSteqIcSt11char_traitsIcESaIcEEbRKNSt7__cxx1112basic_stringIT_T0_T1_EEPKS5_(ptr noundef nonnull align 8 dereferenceable(32) %11, ptr noundef @.str.56)
          to label %44 unwind label %50

44:                                               ; preds = %42
  br i1 %43, label %45, label %58

45:                                               ; preds = %44
  store i1 false, ptr %4, align 1
  store i32 1, ptr %13, align 4
  br label %67

46:                                               ; preds = %3
  %47 = landingpad { ptr, i32 }
          cleanup
  %48 = extractvalue { ptr, i32 } %47, 0
  store ptr %48, ptr %9, align 8
  %49 = extractvalue { ptr, i32 } %47, 1
  store i32 %49, ptr %10, align 4
  br label %72

50:                                               ; preds = %59, %42, %41, %29
  %51 = landingpad { ptr, i32 }
          cleanup
  %52 = extractvalue { ptr, i32 } %51, 0
  store ptr %52, ptr %9, align 8
  %53 = extractvalue { ptr, i32 } %51, 1
  store i32 %53, ptr %10, align 4
  br label %68

54:                                               ; preds = %38
  %55 = landingpad { ptr, i32 }
          cleanup
  %56 = extractvalue { ptr, i32 } %55, 0
  store ptr %56, ptr %9, align 8
  %57 = extractvalue { ptr, i32 } %55, 1
  store i32 %57, ptr %10, align 4
  call void @_ZNSt7__cxx1112basic_stringIcSt11char_traitsIcESaIcEED1Ev(ptr noundef nonnull align 8 dereferenceable(32) %12) #3
  br label %68

58:                                               ; preds = %44
  br label %59

59:                                               ; preds = %58, %40
  %60 = load ptr, ptr %7, align 8
  %61 = call noundef ptr @_ZNK5boost10scoped_ptrIN4i18n12phonenumbers11RegExpInputEEptEv(ptr noundef nonnull align 8 dereferenceable(8) %8) #3
  %62 = load ptr, ptr %61, align 8
  %63 = getelementptr inbounds ptr, ptr %62, i64 2
  %64 = load ptr, ptr %63, align 8
  invoke void %64(ptr dead_on_unwind writable sret(%"class.std::__cxx11::basic_string") align 8 %14, ptr noundef nonnull align 8 dereferenceable(8) %61)
          to label %65 unwind label %50

65:                                               ; preds = %59
  %66 = call noundef nonnull align 8 dereferenceable(32) ptr @_ZNSt7__cxx1112basic_stringIcSt11char_traitsIcESaIcEE6assignEOS4_(ptr noundef nonnull align 8 dereferenceable(32) %60, ptr noundef nonnull align 8 dereferenceable(32) %14) #3
  call void @_ZNSt7__cxx1112basic_stringIcSt11char_traitsIcESaIcEED1Ev(ptr noundef nonnull align 8 dereferenceable(32) %14) #3
  store i1 true, ptr %4, align 1
  store i32 1, ptr %13, align 4
  br label %67

67:                                               ; preds = %65, %45
  call void @_ZNSt7__cxx1112basic_stringIcSt11char_traitsIcESaIcEED1Ev(ptr noundef nonnull align 8 dereferenceable(32) %11) #3
  br label %70

68:                                               ; preds = %54, %50
  call void @_ZNSt7__cxx1112basic_stringIcSt11char_traitsIcESaIcEED1Ev(ptr noundef nonnull align 8 dereferenceable(32) %11) #3
  br label %72

69:                                               ; preds = %28
  store i1 false, ptr %4, align 1
  store i32 1, ptr %13, align 4
  br label %70

70:                                               ; preds = %69, %67
  call void @_ZN5boost10scoped_ptrIN4i18n12phonenumbers11RegExpInputEED2Ev(ptr noundef nonnull align 8 dereferenceable(8) %8) #3
  %71 = load i1, ptr %4, align 1
  ret i1 %71

72:                                               ; preds = %68, %46
  call void @_ZN5boost10scoped_ptrIN4i18n12phonenumbers11RegExpInputEED2Ev(ptr noundef nonnull align 8 dereferenceable(8) %8) #3
  br label %73

73:                                               ; preds = %72
  %74 = load ptr, ptr %9, align 8
  %75 = load i32, ptr %10, align 4
  %76 = insertvalue { ptr, i32 } poison, ptr %74, 0
  %77 = insertvalue { ptr, i32 } %76, i32 %75, 1
  resume { ptr, i32 } %77
}