; Function Attrs: mustprogress uwtable
define dso_local noundef zeroext i1 @_ZNK4i18n12phonenumbers15PhoneNumberUtil16ParsePrefixAsIddERKNS0_6RegExpEPNSt7__cxx1112basic_stringIcSt11char_traitsIcESaIcEEE(ptr nocapture noundef nonnull readonly align 8 dereferenceable(64) %0, ptr noundef nonnull align 8 dereferenceable(8) %1, ptr noundef %2) local_unnamed_addr #4 align 2 personality ptr @__gxx_personality_v0 {
  %4 = alloca %"class.std::__cxx11::basic_string", align 8
  %5 = alloca %"class.std::__cxx11::basic_string", align 8
  %6 = alloca %"class.std::__cxx11::basic_string", align 8
  %7 = getelementptr inbounds i8, ptr %0, i64 24
  %8 = load ptr, ptr %7, align 8
  %9 = getelementptr inbounds i8, ptr %8, i64 192
  %10 = load ptr, ptr %9, align 8
  %11 = load ptr, ptr %10, align 8
  %12 = getelementptr inbounds i8, ptr %11, i64 16
  %13 = load ptr, ptr %12, align 8
  %14 = tail call noundef ptr %13(ptr noundef nonnull align 8 dereferenceable(8) %10, ptr noundef nonnull align 8 dereferenceable(32) %2)
  %15 = load ptr, ptr %1, align 8
  %16 = getelementptr inbounds i8, ptr %15, i64 16
  %17 = load ptr, ptr %16, align 8
  %18 = invoke noundef zeroext i1 %17(ptr noundef nonnull align 8 dereferenceable(8) %1, ptr noundef %14, i1 noundef zeroext true, ptr noundef null, ptr noundef null, ptr noundef null, ptr noundef null, ptr noundef null, ptr noundef null)
          to label %_ZNK4i18n12phonenumbers6RegExp7ConsumeEPNS0_11RegExpInputE.exit unwind label %51

_ZNK4i18n12phonenumbers6RegExp7ConsumeEPNS0_11RegExpInputE.exit: ; preds = %3
  br i1 %18, label %19, label %45

19:                                               ; preds = %_ZNK4i18n12phonenumbers6RegExp7ConsumeEPNS0_11RegExpInputE.exit
  call void @_ZNSt7__cxx1112basic_stringIcSt11char_traitsIcESaIcEEC1Ev(ptr noundef nonnull align 8 dereferenceable(32) %4) #26
  %20 = load ptr, ptr %7, align 8
  %21 = getelementptr inbounds i8, ptr %20, i64 560
  %22 = load ptr, ptr %21, align 8
  %23 = load ptr, ptr %14, align 8
  %24 = getelementptr inbounds i8, ptr %23, i64 16
  %25 = load ptr, ptr %24, align 8
  invoke void %25(ptr dead_on_unwind nonnull writable sret(%"class.std::__cxx11::basic_string") align 8 %5, ptr noundef nonnull align 8 dereferenceable(8) %14)
          to label %26 unwind label %35

26:                                               ; preds = %19
  %27 = load ptr, ptr %22, align 8
  %28 = getelementptr inbounds i8, ptr %27, i64 24
  %29 = load ptr, ptr %28, align 8
  %30 = invoke noundef zeroext i1 %29(ptr noundef nonnull align 8 dereferenceable(8) %22, ptr noundef nonnull align 8 dereferenceable(32) %5, i1 noundef zeroext false, ptr noundef nonnull %4)
          to label %_ZNK4i18n12phonenumbers6RegExp12PartialMatchERKNSt7__cxx1112basic_stringIcSt11char_traitsIcESaIcEEEPS7_.exit unwind label %37

_ZNK4i18n12phonenumbers6RegExp12PartialMatchERKNSt7__cxx1112basic_stringIcSt11char_traitsIcESaIcEEEPS7_.exit: ; preds = %26
  call void @_ZNSt7__cxx1112basic_stringIcSt11char_traitsIcESaIcEED1Ev(ptr noundef nonnull align 8 dereferenceable(32) %5) #26
  br i1 %30, label %31, label %39

31:                                               ; preds = %_ZNK4i18n12phonenumbers6RegExp12PartialMatchERKNSt7__cxx1112basic_stringIcSt11char_traitsIcESaIcEEEPS7_.exit
  invoke void @_ZNK4i18n12phonenumbers15PhoneNumberUtil19NormalizeDigitsOnlyEPNSt7__cxx1112basic_stringIcSt11char_traitsIcESaIcEEE(ptr noundef nonnull align 8 dereferenceable(64) %0, ptr noundef nonnull %4)
          to label %32 unwind label %35

32:                                               ; preds = %31
  %33 = call noundef i32 @_ZNKSt7__cxx1112basic_stringIcSt11char_traitsIcESaIcEE7compareEPKc(ptr noundef nonnull align 8 dereferenceable(32) %4, ptr noundef nonnull @.str.56) #26
  %34 = icmp eq i32 %33, 0
  br i1 %34, label %.thread, label %39

35:                                               ; preds = %39, %31, %19
  %36 = landingpad { ptr, i32 }
          cleanup
  br label %.thread20

37:                                               ; preds = %26
  %38 = landingpad { ptr, i32 }
          cleanup
  call void @_ZNSt7__cxx1112basic_stringIcSt11char_traitsIcESaIcEED1Ev(ptr noundef nonnull align 8 dereferenceable(32) %5) #26
  br label %.thread20

39:                                               ; preds = %32, %_ZNK4i18n12phonenumbers6RegExp12PartialMatchERKNSt7__cxx1112basic_stringIcSt11char_traitsIcESaIcEEEPS7_.exit
  %40 = load ptr, ptr %14, align 8
  %41 = getelementptr inbounds i8, ptr %40, i64 16
  %42 = load ptr, ptr %41, align 8
  invoke void %42(ptr dead_on_unwind nonnull writable sret(%"class.std::__cxx11::basic_string") align 8 %6, ptr noundef nonnull align 8 dereferenceable(8) %14)
          to label %43 unwind label %35

43:                                               ; preds = %39
  %44 = call noundef nonnull align 8 dereferenceable(32) ptr @_ZNSt7__cxx1112basic_stringIcSt11char_traitsIcESaIcEE6assignEOS4_(ptr noundef nonnull align 8 dereferenceable(32) %2, ptr noundef nonnull align 8 dereferenceable(32) %6) #26
  call void @_ZNSt7__cxx1112basic_stringIcSt11char_traitsIcESaIcEED1Ev(ptr noundef nonnull align 8 dereferenceable(32) %6) #26
  br label %.thread

.thread:                                          ; preds = %43, %32
  %.08 = phi i1 [ true, %43 ], [ false, %32 ]
  call void @_ZNSt7__cxx1112basic_stringIcSt11char_traitsIcESaIcEED1Ev(ptr noundef nonnull align 8 dereferenceable(32) %4) #26
  br label %47

.thread20:                                        ; preds = %35, %37
  %.pn = phi { ptr, i32 } [ %36, %35 ], [ %38, %37 ]
  call void @_ZNSt7__cxx1112basic_stringIcSt11char_traitsIcESaIcEED1Ev(ptr noundef nonnull align 8 dereferenceable(32) %4) #26
  br label %54

45:                                               ; preds = %_ZNK4i18n12phonenumbers6RegExp7ConsumeEPNS0_11RegExpInputE.exit
  %46 = icmp eq ptr %14, null
  br i1 %46, label %_ZN5boost10scoped_ptrIN4i18n12phonenumbers11RegExpInputEED2Ev.exit, label %47

47:                                               ; preds = %.thread, %45
  %.1918 = phi i1 [ %.08, %.thread ], [ false, %45 ]
  %48 = load ptr, ptr %14, align 8
  %49 = getelementptr inbounds i8, ptr %48, i64 8
  %50 = load ptr, ptr %49, align 8
  call void %50(ptr noundef nonnull align 8 dereferenceable(8) %14) #26
  br label %_ZN5boost10scoped_ptrIN4i18n12phonenumbers11RegExpInputEED2Ev.exit

_ZN5boost10scoped_ptrIN4i18n12phonenumbers11RegExpInputEED2Ev.exit: ; preds = %45, %47
  %.1919 = phi i1 [ false, %45 ], [ %.1918, %47 ]
  ret i1 %.1919

51:                                               ; preds = %3
  %52 = landingpad { ptr, i32 }
          cleanup
  %53 = icmp eq ptr %14, null
  br i1 %53, label %_ZN5boost10scoped_ptrIN4i18n12phonenumbers11RegExpInputEED2Ev.exit12, label %54

54:                                               ; preds = %.thread20, %51
  %.pn.pn22 = phi { ptr, i32 } [ %.pn, %.thread20 ], [ %52, %51 ]
  %55 = load ptr, ptr %14, align 8
  %56 = getelementptr inbounds i8, ptr %55, i64 8
  %57 = load ptr, ptr %56, align 8
  call void %57(ptr noundef nonnull align 8 dereferenceable(8) %14) #26
  br label %_ZN5boost10scoped_ptrIN4i18n12phonenumbers11RegExpInputEED2Ev.exit12

_ZN5boost10scoped_ptrIN4i18n12phonenumbers11RegExpInputEED2Ev.exit12: ; preds = %51, %54
  %.pn.pn23 = phi { ptr, i32 } [ %52, %51 ], [ %.pn.pn22, %54 ]
  resume { ptr, i32 } %.pn.pn23
}